ARM GAS  C:\Users\asafw\AppData\Local\Temp\ccIUMhYi.s 			page 1


   1              		.cpu cortex-m4
   2              		.eabi_attribute 27, 1
   3              		.eabi_attribute 28, 1
   4              		.eabi_attribute 20, 1
   5              		.eabi_attribute 21, 1
   6              		.eabi_attribute 23, 3
   7              		.eabi_attribute 24, 1
   8              		.eabi_attribute 25, 1
   9              		.eabi_attribute 26, 1
  10              		.eabi_attribute 30, 1
  11              		.eabi_attribute 34, 1
  12              		.eabi_attribute 18, 4
  13              		.file	"vl6180x_i2c.c"
  14              		.text
  15              	.Ltext0:
  16              		.cfi_sections	.debug_frame
  17              		.section	.text.VL6180x_WrByte,"ax",%progbits
  18              		.align	1
  19              		.global	VL6180x_WrByte
  20              		.arch armv7e-m
  21              		.syntax unified
  22              		.thumb
  23              		.thumb_func
  24              		.fpu fpv4-sp-d16
  26              	VL6180x_WrByte:
  27              	.LVL0:
  28              	.LFB0:
  29              		.file 1 "Src/vl6180x_i2c.c"
   1:Src/vl6180x_i2c.c **** 
   2:Src/vl6180x_i2c.c **** /*******************************************************************************
   3:Src/vl6180x_i2c.c **** Copyright © 2014, STMicroelectronics International N.V.
   4:Src/vl6180x_i2c.c **** All rights reserved.
   5:Src/vl6180x_i2c.c **** 
   6:Src/vl6180x_i2c.c **** Redistribution and use in source and binary forms, with or without
   7:Src/vl6180x_i2c.c **** modification, are permitted provided that the following conditions are met:
   8:Src/vl6180x_i2c.c ****     * Redistributions of source code must retain the above copyright
   9:Src/vl6180x_i2c.c ****       notice, this list of conditions and the following disclaimer.
  10:Src/vl6180x_i2c.c ****     * Redistributions in binary form must reproduce the above copyright
  11:Src/vl6180x_i2c.c ****       notice, this list of conditions and the following disclaimer in the
  12:Src/vl6180x_i2c.c ****       documentation and/or other materials provided with the distribution.
  13:Src/vl6180x_i2c.c ****     * Neither the name of STMicroelectronics nor the
  14:Src/vl6180x_i2c.c ****       names of its contributors may be used to endorse or promote products
  15:Src/vl6180x_i2c.c ****       derived from this software without specific prior written permission.
  16:Src/vl6180x_i2c.c **** 
  17:Src/vl6180x_i2c.c **** THIS SOFTWARE IS PROVIDED BY THE COPYRIGHT HOLDERS AND CONTRIBUTORS "AS IS" AND
  18:Src/vl6180x_i2c.c **** ANY EXPRESS OR IMPLIED WARRANTIES, INCLUDING, BUT NOT LIMITED TO, THE IMPLIED
  19:Src/vl6180x_i2c.c **** WARRANTIES OF MERCHANTABILITY, FITNESS FOR A PARTICULAR PURPOSE, AND
  20:Src/vl6180x_i2c.c **** NON-INFRINGEMENT OF INTELLECTUAL PROPERTY RIGHTS ARE DISCLAIMED. 
  21:Src/vl6180x_i2c.c **** IN NO EVENT SHALL STMICROELECTRONICS INTERNATIONAL N.V. BE LIABLE FOR ANY
  22:Src/vl6180x_i2c.c **** DIRECT, INDIRECT, INCIDENTAL, SPECIAL, EXEMPLARY, OR CONSEQUENTIAL DAMAGES
  23:Src/vl6180x_i2c.c **** (INCLUDING, BUT NOT LIMITED TO, PROCUREMENT OF SUBSTITUTE GOODS OR SERVICES;
  24:Src/vl6180x_i2c.c **** LOSS OF USE, DATA, OR PROFITS; OR BUSINESS INTERRUPTION) HOWEVER CAUSED AND
  25:Src/vl6180x_i2c.c **** ON ANY THEORY OF LIABILITY, WHETHER IN CONTRACT, STRICT LIABILITY, OR TORT
  26:Src/vl6180x_i2c.c **** (INCLUDING NEGLIGENCE OR OTHERWISE) ARISING IN ANY WAY OUT OF THE USE OF THIS
  27:Src/vl6180x_i2c.c **** SOFTWARE, EVEN IF ADVISED OF THE POSSIBILITY OF SUCH DAMAGE.
  28:Src/vl6180x_i2c.c **** ********************************************************************************/
  29:Src/vl6180x_i2c.c **** /*
ARM GAS  C:\Users\asafw\AppData\Local\Temp\ccIUMhYi.s 			page 2


  30:Src/vl6180x_i2c.c ****  * $Date: 2015-07-06 15:44:31 +0200 (Mon, 06 Jul 2015) $
  31:Src/vl6180x_i2c.c ****  * $Revision: 2430 $
  32:Src/vl6180x_i2c.c ****  */
  33:Src/vl6180x_i2c.c **** 
  34:Src/vl6180x_i2c.c **** /**
  35:Src/vl6180x_i2c.c ****  * @file vl6180x_i2c.c
  36:Src/vl6180x_i2c.c ****  *
  37:Src/vl6180x_i2c.c ****  * Copyright (C) 2014 ST MicroElectronics
  38:Src/vl6180x_i2c.c ****  *
  39:Src/vl6180x_i2c.c ****  * provide variable word size byte/Word/dword VL6180x register access via i2c
  40:Src/vl6180x_i2c.c ****  *
  41:Src/vl6180x_i2c.c ****  */
  42:Src/vl6180x_i2c.c **** #include "vl6180x_i2c.h"
  43:Src/vl6180x_i2c.c **** 
  44:Src/vl6180x_i2c.c **** #ifndef I2C_BUFFER_CONFIG
  45:Src/vl6180x_i2c.c **** #error "I2C_BUFFER_CONFIG not defined"
  46:Src/vl6180x_i2c.c **** /* TODO you must define value for  I2C_BUFFER_CONFIG in configuration or platform h */
  47:Src/vl6180x_i2c.c **** #endif
  48:Src/vl6180x_i2c.c **** 
  49:Src/vl6180x_i2c.c **** 
  50:Src/vl6180x_i2c.c **** #if I2C_BUFFER_CONFIG == 0
  51:Src/vl6180x_i2c.c ****     /* GLOBAL config buffer */
  52:Src/vl6180x_i2c.c ****     uint8_t i2c_global_buffer[VL6180x_MAX_I2C_XFER_SIZE];
  53:Src/vl6180x_i2c.c **** 
  54:Src/vl6180x_i2c.c ****     #define DECL_I2C_BUFFER
  55:Src/vl6180x_i2c.c ****     #define VL6180x_GetI2cBuffer(dev, n_byte)  i2c_global_buffer
  56:Src/vl6180x_i2c.c **** 
  57:Src/vl6180x_i2c.c **** #elif I2C_BUFFER_CONFIG == 1
  58:Src/vl6180x_i2c.c ****     /* ON STACK */
  59:Src/vl6180x_i2c.c ****     #define DECL_I2C_BUFFER  uint8_t LocBuffer[VL6180x_MAX_I2C_XFER_SIZE];
  60:Src/vl6180x_i2c.c ****     #define VL6180x_GetI2cBuffer(dev, n_byte)  LocBuffer
  61:Src/vl6180x_i2c.c **** #elif I2C_BUFFER_CONFIG == 2
  62:Src/vl6180x_i2c.c ****     /* user define buffer type declare DECL_I2C_BUFFER  as access  via VL6180x_GetI2cBuffer */
  63:Src/vl6180x_i2c.c ****     #define DECL_I2C_BUFFER
  64:Src/vl6180x_i2c.c **** #else
  65:Src/vl6180x_i2c.c **** #error "invalid I2C_BUFFER_CONFIG "
  66:Src/vl6180x_i2c.c **** #endif
  67:Src/vl6180x_i2c.c **** 
  68:Src/vl6180x_i2c.c **** 
  69:Src/vl6180x_i2c.c **** int VL6180x_WrByte(VL6180xDev_t dev, uint16_t index, uint8_t data){
  30              		.loc 1 69 67 view -0
  31              		.cfi_startproc
  32              		@ args = 0, pretend = 0, frame = 8
  33              		@ frame_needed = 0, uses_anonymous_args = 0
  34              		.loc 1 69 67 is_stmt 0 view .LVU1
  35 0000 00B5     		push	{lr}
  36              	.LCFI0:
  37              		.cfi_def_cfa_offset 4
  38              		.cfi_offset 14, -4
  39 0002 83B0     		sub	sp, sp, #12
  40              	.LCFI1:
  41              		.cfi_def_cfa_offset 16
  70:Src/vl6180x_i2c.c ****     int  status;
  42              		.loc 1 70 5 is_stmt 1 view .LVU2
  71:Src/vl6180x_i2c.c ****     uint8_t *buffer;
  43              		.loc 1 71 5 view .LVU3
  72:Src/vl6180x_i2c.c ****     DECL_I2C_BUFFER
ARM GAS  C:\Users\asafw\AppData\Local\Temp\ccIUMhYi.s 			page 3


  44              		.loc 1 72 5 view .LVU4
  73:Src/vl6180x_i2c.c ****     VL6180x_I2C_USER_VAR
  74:Src/vl6180x_i2c.c **** 
  75:Src/vl6180x_i2c.c ****     VL6180x_GetI2CAccess(dev);
  45              		.loc 1 75 5 view .LVU5
  76:Src/vl6180x_i2c.c **** 
  77:Src/vl6180x_i2c.c ****     buffer=VL6180x_GetI2cBuffer(dev,3);
  46              		.loc 1 77 5 view .LVU6
  47              	.LVL1:
  78:Src/vl6180x_i2c.c ****     buffer[0]=index>>8;
  48              		.loc 1 78 5 view .LVU7
  49              		.loc 1 78 14 is_stmt 0 view .LVU8
  50 0004 0B0A     		lsrs	r3, r1, #8
  51 0006 8DF80030 		strb	r3, [sp]
  79:Src/vl6180x_i2c.c ****     buffer[1]=index&0xFF;
  52              		.loc 1 79 5 is_stmt 1 view .LVU9
  53              		.loc 1 79 14 is_stmt 0 view .LVU10
  54 000a 8DF80110 		strb	r1, [sp, #1]
  80:Src/vl6180x_i2c.c ****     buffer[2]=data;
  55              		.loc 1 80 5 is_stmt 1 view .LVU11
  56              		.loc 1 80 14 is_stmt 0 view .LVU12
  57 000e 8DF80220 		strb	r2, [sp, #2]
  81:Src/vl6180x_i2c.c **** 
  82:Src/vl6180x_i2c.c ****     status=VL6180x_I2CWrite(dev, buffer,(uint8_t)3);
  58              		.loc 1 82 5 is_stmt 1 view .LVU13
  59              		.loc 1 82 12 is_stmt 0 view .LVU14
  60 0012 0322     		movs	r2, #3
  61              	.LVL2:
  62              		.loc 1 82 12 view .LVU15
  63 0014 6946     		mov	r1, sp
  64              	.LVL3:
  65              		.loc 1 82 12 view .LVU16
  66 0016 FFF7FEFF 		bl	VL6180x_I2CWrite
  67              	.LVL4:
  83:Src/vl6180x_i2c.c ****     VL6180x_DoneI2CAcces(dev);
  68              		.loc 1 83 5 is_stmt 1 view .LVU17
  84:Src/vl6180x_i2c.c ****     return status;
  69              		.loc 1 84 5 view .LVU18
  85:Src/vl6180x_i2c.c **** }
  70              		.loc 1 85 1 is_stmt 0 view .LVU19
  71 001a 03B0     		add	sp, sp, #12
  72              	.LCFI2:
  73              		.cfi_def_cfa_offset 4
  74              	.LVL5:
  75              		.loc 1 85 1 view .LVU20
  76              		@ sp needed
  77 001c 5DF804FB 		ldr	pc, [sp], #4
  78              		.loc 1 85 1 view .LVU21
  79              		.cfi_endproc
  80              	.LFE0:
  82              		.section	.text.VL6180x_WrWord,"ax",%progbits
  83              		.align	1
  84              		.global	VL6180x_WrWord
  85              		.syntax unified
  86              		.thumb
  87              		.thumb_func
  88              		.fpu fpv4-sp-d16
ARM GAS  C:\Users\asafw\AppData\Local\Temp\ccIUMhYi.s 			page 4


  90              	VL6180x_WrWord:
  91              	.LVL6:
  92              	.LFB1:
  86:Src/vl6180x_i2c.c **** 
  87:Src/vl6180x_i2c.c **** int VL6180x_WrWord(VL6180xDev_t dev, uint16_t index, uint16_t data){
  93              		.loc 1 87 68 is_stmt 1 view -0
  94              		.cfi_startproc
  95              		@ args = 0, pretend = 0, frame = 8
  96              		@ frame_needed = 0, uses_anonymous_args = 0
  97              		.loc 1 87 68 is_stmt 0 view .LVU23
  98 0000 00B5     		push	{lr}
  99              	.LCFI3:
 100              		.cfi_def_cfa_offset 4
 101              		.cfi_offset 14, -4
 102 0002 83B0     		sub	sp, sp, #12
 103              	.LCFI4:
 104              		.cfi_def_cfa_offset 16
  88:Src/vl6180x_i2c.c ****     int  status;
 105              		.loc 1 88 5 is_stmt 1 view .LVU24
  89:Src/vl6180x_i2c.c ****     DECL_I2C_BUFFER
 106              		.loc 1 89 5 view .LVU25
  90:Src/vl6180x_i2c.c ****     uint8_t *buffer;
 107              		.loc 1 90 5 view .LVU26
  91:Src/vl6180x_i2c.c ****     VL6180x_I2C_USER_VAR
  92:Src/vl6180x_i2c.c **** 
  93:Src/vl6180x_i2c.c ****     VL6180x_GetI2CAccess(dev);
 108              		.loc 1 93 5 view .LVU27
  94:Src/vl6180x_i2c.c **** 
  95:Src/vl6180x_i2c.c ****     buffer=VL6180x_GetI2cBuffer(dev,4);
 109              		.loc 1 95 5 view .LVU28
 110              	.LVL7:
  96:Src/vl6180x_i2c.c ****     buffer[0]=index>>8;
 111              		.loc 1 96 5 view .LVU29
 112              		.loc 1 96 14 is_stmt 0 view .LVU30
 113 0004 0B0A     		lsrs	r3, r1, #8
 114 0006 8DF80030 		strb	r3, [sp]
  97:Src/vl6180x_i2c.c ****     buffer[1]=index&0xFF;
 115              		.loc 1 97 5 is_stmt 1 view .LVU31
 116              		.loc 1 97 14 is_stmt 0 view .LVU32
 117 000a 8DF80110 		strb	r1, [sp, #1]
  98:Src/vl6180x_i2c.c ****     buffer[2]=data>>8;
 118              		.loc 1 98 5 is_stmt 1 view .LVU33
 119              		.loc 1 98 14 is_stmt 0 view .LVU34
 120 000e 130A     		lsrs	r3, r2, #8
 121 0010 8DF80230 		strb	r3, [sp, #2]
  99:Src/vl6180x_i2c.c ****     buffer[3]=data&0xFF;
 122              		.loc 1 99 5 is_stmt 1 view .LVU35
 123              		.loc 1 99 14 is_stmt 0 view .LVU36
 124 0014 8DF80320 		strb	r2, [sp, #3]
 100:Src/vl6180x_i2c.c **** 
 101:Src/vl6180x_i2c.c ****     status=VL6180x_I2CWrite(dev, buffer,(uint8_t)4);
 125              		.loc 1 101 5 is_stmt 1 view .LVU37
 126              		.loc 1 101 12 is_stmt 0 view .LVU38
 127 0018 0422     		movs	r2, #4
 128              	.LVL8:
 129              		.loc 1 101 12 view .LVU39
 130 001a 6946     		mov	r1, sp
ARM GAS  C:\Users\asafw\AppData\Local\Temp\ccIUMhYi.s 			page 5


 131              	.LVL9:
 132              		.loc 1 101 12 view .LVU40
 133 001c FFF7FEFF 		bl	VL6180x_I2CWrite
 134              	.LVL10:
 102:Src/vl6180x_i2c.c ****     VL6180x_DoneI2CAcces(dev);
 135              		.loc 1 102 5 is_stmt 1 view .LVU41
 103:Src/vl6180x_i2c.c ****     return status;
 136              		.loc 1 103 5 view .LVU42
 104:Src/vl6180x_i2c.c **** }
 137              		.loc 1 104 1 is_stmt 0 view .LVU43
 138 0020 03B0     		add	sp, sp, #12
 139              	.LCFI5:
 140              		.cfi_def_cfa_offset 4
 141              	.LVL11:
 142              		.loc 1 104 1 view .LVU44
 143              		@ sp needed
 144 0022 5DF804FB 		ldr	pc, [sp], #4
 145              		.loc 1 104 1 view .LVU45
 146              		.cfi_endproc
 147              	.LFE1:
 149              		.section	.text.VL6180x_WrDWord,"ax",%progbits
 150              		.align	1
 151              		.global	VL6180x_WrDWord
 152              		.syntax unified
 153              		.thumb
 154              		.thumb_func
 155              		.fpu fpv4-sp-d16
 157              	VL6180x_WrDWord:
 158              	.LVL12:
 159              	.LFB2:
 105:Src/vl6180x_i2c.c **** 
 106:Src/vl6180x_i2c.c **** int VL6180x_WrDWord(VL6180xDev_t dev, uint16_t index, uint32_t data){
 160              		.loc 1 106 69 is_stmt 1 view -0
 161              		.cfi_startproc
 162              		@ args = 0, pretend = 0, frame = 8
 163              		@ frame_needed = 0, uses_anonymous_args = 0
 164              		.loc 1 106 69 is_stmt 0 view .LVU47
 165 0000 00B5     		push	{lr}
 166              	.LCFI6:
 167              		.cfi_def_cfa_offset 4
 168              		.cfi_offset 14, -4
 169 0002 83B0     		sub	sp, sp, #12
 170              	.LCFI7:
 171              		.cfi_def_cfa_offset 16
 107:Src/vl6180x_i2c.c ****     VL6180x_I2C_USER_VAR
 108:Src/vl6180x_i2c.c ****     DECL_I2C_BUFFER
 172              		.loc 1 108 5 is_stmt 1 view .LVU48
 109:Src/vl6180x_i2c.c ****     int  status;
 173              		.loc 1 109 5 view .LVU49
 110:Src/vl6180x_i2c.c ****     uint8_t *buffer;
 174              		.loc 1 110 5 view .LVU50
 111:Src/vl6180x_i2c.c **** 
 112:Src/vl6180x_i2c.c **** 
 113:Src/vl6180x_i2c.c ****     VL6180x_GetI2CAccess(dev);
 175              		.loc 1 113 5 view .LVU51
 114:Src/vl6180x_i2c.c ****     buffer=VL6180x_GetI2cBuffer(dev,6);
 176              		.loc 1 114 5 view .LVU52
ARM GAS  C:\Users\asafw\AppData\Local\Temp\ccIUMhYi.s 			page 6


 177              	.LVL13:
 115:Src/vl6180x_i2c.c ****     buffer[0]=index>>8;
 178              		.loc 1 115 5 view .LVU53
 179              		.loc 1 115 14 is_stmt 0 view .LVU54
 180 0004 0B0A     		lsrs	r3, r1, #8
 181 0006 8DF80030 		strb	r3, [sp]
 116:Src/vl6180x_i2c.c ****     buffer[1]=index&0xFF;
 182              		.loc 1 116 5 is_stmt 1 view .LVU55
 183              		.loc 1 116 14 is_stmt 0 view .LVU56
 184 000a 8DF80110 		strb	r1, [sp, #1]
 117:Src/vl6180x_i2c.c ****     buffer[2]=data>>24;
 185              		.loc 1 117 5 is_stmt 1 view .LVU57
 186              		.loc 1 117 19 is_stmt 0 view .LVU58
 187 000e 130E     		lsrs	r3, r2, #24
 188              		.loc 1 117 14 view .LVU59
 189 0010 8DF80230 		strb	r3, [sp, #2]
 118:Src/vl6180x_i2c.c ****     buffer[3]=(data>>16)&0xFF;
 190              		.loc 1 118 5 is_stmt 1 view .LVU60
 191              		.loc 1 118 20 is_stmt 0 view .LVU61
 192 0014 130C     		lsrs	r3, r2, #16
 193              		.loc 1 118 14 view .LVU62
 194 0016 8DF80330 		strb	r3, [sp, #3]
 119:Src/vl6180x_i2c.c ****     buffer[4]=(data>>8)&0xFF;;
 195              		.loc 1 119 5 is_stmt 1 view .LVU63
 196              		.loc 1 119 20 is_stmt 0 view .LVU64
 197 001a 130A     		lsrs	r3, r2, #8
 198              		.loc 1 119 14 view .LVU65
 199 001c 8DF80430 		strb	r3, [sp, #4]
 200              		.loc 1 119 30 is_stmt 1 view .LVU66
 120:Src/vl6180x_i2c.c ****     buffer[5]=data&0xFF;
 201              		.loc 1 120 5 view .LVU67
 202              		.loc 1 120 14 is_stmt 0 view .LVU68
 203 0020 8DF80520 		strb	r2, [sp, #5]
 121:Src/vl6180x_i2c.c ****     status=VL6180x_I2CWrite(dev, buffer,(uint8_t)6);
 204              		.loc 1 121 5 is_stmt 1 view .LVU69
 205              		.loc 1 121 12 is_stmt 0 view .LVU70
 206 0024 0622     		movs	r2, #6
 207              	.LVL14:
 208              		.loc 1 121 12 view .LVU71
 209 0026 6946     		mov	r1, sp
 210              	.LVL15:
 211              		.loc 1 121 12 view .LVU72
 212 0028 FFF7FEFF 		bl	VL6180x_I2CWrite
 213              	.LVL16:
 122:Src/vl6180x_i2c.c ****     VL6180x_DoneI2CAcces(dev);
 214              		.loc 1 122 5 is_stmt 1 view .LVU73
 123:Src/vl6180x_i2c.c **** 
 124:Src/vl6180x_i2c.c ****     return status;
 215              		.loc 1 124 5 view .LVU74
 125:Src/vl6180x_i2c.c **** }
 216              		.loc 1 125 1 is_stmt 0 view .LVU75
 217 002c 03B0     		add	sp, sp, #12
 218              	.LCFI8:
 219              		.cfi_def_cfa_offset 4
 220              	.LVL17:
 221              		.loc 1 125 1 view .LVU76
 222              		@ sp needed
ARM GAS  C:\Users\asafw\AppData\Local\Temp\ccIUMhYi.s 			page 7


 223 002e 5DF804FB 		ldr	pc, [sp], #4
 224              		.loc 1 125 1 view .LVU77
 225              		.cfi_endproc
 226              	.LFE2:
 228              		.section	.text.VL6180x_UpdateByte,"ax",%progbits
 229              		.align	1
 230              		.global	VL6180x_UpdateByte
 231              		.syntax unified
 232              		.thumb
 233              		.thumb_func
 234              		.fpu fpv4-sp-d16
 236              	VL6180x_UpdateByte:
 237              	.LVL18:
 238              	.LFB3:
 126:Src/vl6180x_i2c.c **** 
 127:Src/vl6180x_i2c.c **** int VL6180x_UpdateByte(VL6180xDev_t dev, uint16_t index, uint8_t AndData, uint8_t OrData){
 239              		.loc 1 127 90 is_stmt 1 view -0
 240              		.cfi_startproc
 241              		@ args = 0, pretend = 0, frame = 8
 242              		@ frame_needed = 0, uses_anonymous_args = 0
 243              		.loc 1 127 90 is_stmt 0 view .LVU79
 244 0000 F0B5     		push	{r4, r5, r6, r7, lr}
 245              	.LCFI9:
 246              		.cfi_def_cfa_offset 20
 247              		.cfi_offset 4, -20
 248              		.cfi_offset 5, -16
 249              		.cfi_offset 6, -12
 250              		.cfi_offset 7, -8
 251              		.cfi_offset 14, -4
 252 0002 83B0     		sub	sp, sp, #12
 253              	.LCFI10:
 254              		.cfi_def_cfa_offset 32
 255 0004 0446     		mov	r4, r0
 256 0006 1746     		mov	r7, r2
 257 0008 1E46     		mov	r6, r3
 128:Src/vl6180x_i2c.c ****     VL6180x_I2C_USER_VAR
 129:Src/vl6180x_i2c.c ****     int  status;
 258              		.loc 1 129 5 is_stmt 1 view .LVU80
 130:Src/vl6180x_i2c.c ****     uint8_t *buffer;
 259              		.loc 1 130 5 view .LVU81
 131:Src/vl6180x_i2c.c ****     DECL_I2C_BUFFER
 260              		.loc 1 131 5 view .LVU82
 132:Src/vl6180x_i2c.c **** 
 133:Src/vl6180x_i2c.c ****     VL6180x_GetI2CAccess(dev);
 261              		.loc 1 133 5 view .LVU83
 134:Src/vl6180x_i2c.c **** 
 135:Src/vl6180x_i2c.c ****     buffer=VL6180x_GetI2cBuffer(dev,3);
 262              		.loc 1 135 5 view .LVU84
 263              	.LVL19:
 136:Src/vl6180x_i2c.c ****     buffer[0]=index>>8;
 264              		.loc 1 136 5 view .LVU85
 265              		.loc 1 136 14 is_stmt 0 view .LVU86
 266 000a 0D0A     		lsrs	r5, r1, #8
 267 000c 8DF80050 		strb	r5, [sp]
 137:Src/vl6180x_i2c.c ****     buffer[1]=index&0xFF;
 268              		.loc 1 137 5 is_stmt 1 view .LVU87
 269              		.loc 1 137 14 is_stmt 0 view .LVU88
ARM GAS  C:\Users\asafw\AppData\Local\Temp\ccIUMhYi.s 			page 8


 270 0010 8DF80110 		strb	r1, [sp, #1]
 138:Src/vl6180x_i2c.c **** 
 139:Src/vl6180x_i2c.c ****     status=VL6180x_I2CWrite(dev, (uint8_t *)buffer,(uint8_t)2);
 271              		.loc 1 139 5 is_stmt 1 view .LVU89
 272              		.loc 1 139 12 is_stmt 0 view .LVU90
 273 0014 0222     		movs	r2, #2
 274              	.LVL20:
 275              		.loc 1 139 12 view .LVU91
 276 0016 6946     		mov	r1, sp
 277              	.LVL21:
 278              		.loc 1 139 12 view .LVU92
 279 0018 FFF7FEFF 		bl	VL6180x_I2CWrite
 280              	.LVL22:
 140:Src/vl6180x_i2c.c ****     if( !status ){
 281              		.loc 1 140 5 is_stmt 1 view .LVU93
 282              		.loc 1 140 7 is_stmt 0 view .LVU94
 283 001c 08B1     		cbz	r0, .L10
 284              	.LVL23:
 285              	.L7:
 141:Src/vl6180x_i2c.c ****         /* read data direct onto buffer */
 142:Src/vl6180x_i2c.c ****         status=VL6180x_I2CRead(dev, &buffer[2],1);
 143:Src/vl6180x_i2c.c ****         if( !status ){
 144:Src/vl6180x_i2c.c ****             buffer[2]=(buffer[2]&AndData)|OrData;
 145:Src/vl6180x_i2c.c ****             status=VL6180x_I2CWrite(dev, buffer, (uint8_t)3);
 146:Src/vl6180x_i2c.c ****         }
 147:Src/vl6180x_i2c.c ****     }
 148:Src/vl6180x_i2c.c **** 
 149:Src/vl6180x_i2c.c ****     VL6180x_DoneI2CAcces(dev);
 150:Src/vl6180x_i2c.c **** 
 151:Src/vl6180x_i2c.c ****     return status;
 152:Src/vl6180x_i2c.c **** }
 286              		.loc 1 152 1 view .LVU95
 287 001e 03B0     		add	sp, sp, #12
 288              	.LCFI11:
 289              		.cfi_remember_state
 290              		.cfi_def_cfa_offset 20
 291              	.LVL24:
 292              		.loc 1 152 1 view .LVU96
 293              		@ sp needed
 294 0020 F0BD     		pop	{r4, r5, r6, r7, pc}
 295              	.LVL25:
 296              	.L10:
 297              	.LCFI12:
 298              		.cfi_restore_state
 142:Src/vl6180x_i2c.c ****         if( !status ){
 299              		.loc 1 142 9 is_stmt 1 view .LVU97
 142:Src/vl6180x_i2c.c ****         if( !status ){
 300              		.loc 1 142 16 is_stmt 0 view .LVU98
 301 0022 0122     		movs	r2, #1
 302 0024 0DF10201 		add	r1, sp, #2
 303 0028 2046     		mov	r0, r4
 304 002a FFF7FEFF 		bl	VL6180x_I2CRead
 305              	.LVL26:
 143:Src/vl6180x_i2c.c ****             buffer[2]=(buffer[2]&AndData)|OrData;
 306              		.loc 1 143 9 is_stmt 1 view .LVU99
 143:Src/vl6180x_i2c.c ****             buffer[2]=(buffer[2]&AndData)|OrData;
 307              		.loc 1 143 11 is_stmt 0 view .LVU100
ARM GAS  C:\Users\asafw\AppData\Local\Temp\ccIUMhYi.s 			page 9


 308 002e 0028     		cmp	r0, #0
 309 0030 F5D1     		bne	.L7
 144:Src/vl6180x_i2c.c ****             status=VL6180x_I2CWrite(dev, buffer, (uint8_t)3);
 310              		.loc 1 144 13 is_stmt 1 view .LVU101
 144:Src/vl6180x_i2c.c ****             status=VL6180x_I2CWrite(dev, buffer, (uint8_t)3);
 311              		.loc 1 144 30 is_stmt 0 view .LVU102
 312 0032 9DF80230 		ldrb	r3, [sp, #2]	@ zero_extendqisi2
 144:Src/vl6180x_i2c.c ****             status=VL6180x_I2CWrite(dev, buffer, (uint8_t)3);
 313              		.loc 1 144 22 view .LVU103
 314 0036 3B40     		ands	r3, r3, r7
 315 0038 3343     		orrs	r3, r3, r6
 316 003a 8DF80230 		strb	r3, [sp, #2]
 145:Src/vl6180x_i2c.c ****         }
 317              		.loc 1 145 13 is_stmt 1 view .LVU104
 145:Src/vl6180x_i2c.c ****         }
 318              		.loc 1 145 20 is_stmt 0 view .LVU105
 319 003e 0322     		movs	r2, #3
 320 0040 6946     		mov	r1, sp
 321 0042 2046     		mov	r0, r4
 322              	.LVL27:
 145:Src/vl6180x_i2c.c ****         }
 323              		.loc 1 145 20 view .LVU106
 324 0044 FFF7FEFF 		bl	VL6180x_I2CWrite
 325              	.LVL28:
 149:Src/vl6180x_i2c.c **** 
 326              		.loc 1 149 5 is_stmt 1 view .LVU107
 151:Src/vl6180x_i2c.c **** }
 327              		.loc 1 151 5 view .LVU108
 151:Src/vl6180x_i2c.c **** }
 328              		.loc 1 151 12 is_stmt 0 view .LVU109
 329 0048 E9E7     		b	.L7
 330              		.cfi_endproc
 331              	.LFE3:
 333              		.section	.text.VL6180x_RdByte,"ax",%progbits
 334              		.align	1
 335              		.global	VL6180x_RdByte
 336              		.syntax unified
 337              		.thumb
 338              		.thumb_func
 339              		.fpu fpv4-sp-d16
 341              	VL6180x_RdByte:
 342              	.LVL29:
 343              	.LFB4:
 153:Src/vl6180x_i2c.c **** 
 154:Src/vl6180x_i2c.c **** int VL6180x_RdByte(VL6180xDev_t dev, uint16_t index, uint8_t *data){
 344              		.loc 1 154 68 is_stmt 1 view -0
 345              		.cfi_startproc
 346              		@ args = 0, pretend = 0, frame = 8
 347              		@ frame_needed = 0, uses_anonymous_args = 0
 348              		.loc 1 154 68 is_stmt 0 view .LVU111
 349 0000 30B5     		push	{r4, r5, lr}
 350              	.LCFI13:
 351              		.cfi_def_cfa_offset 12
 352              		.cfi_offset 4, -12
 353              		.cfi_offset 5, -8
 354              		.cfi_offset 14, -4
 355 0002 83B0     		sub	sp, sp, #12
ARM GAS  C:\Users\asafw\AppData\Local\Temp\ccIUMhYi.s 			page 10


 356              	.LCFI14:
 357              		.cfi_def_cfa_offset 24
 358 0004 0446     		mov	r4, r0
 359 0006 1546     		mov	r5, r2
 155:Src/vl6180x_i2c.c ****     VL6180x_I2C_USER_VAR
 156:Src/vl6180x_i2c.c ****     int  status;
 360              		.loc 1 156 5 is_stmt 1 view .LVU112
 157:Src/vl6180x_i2c.c ****     uint8_t *buffer;
 361              		.loc 1 157 5 view .LVU113
 158:Src/vl6180x_i2c.c ****     DECL_I2C_BUFFER
 362              		.loc 1 158 5 view .LVU114
 159:Src/vl6180x_i2c.c **** 
 160:Src/vl6180x_i2c.c ****     VL6180x_GetI2CAccess(dev);
 363              		.loc 1 160 5 view .LVU115
 161:Src/vl6180x_i2c.c **** 
 162:Src/vl6180x_i2c.c ****     buffer=VL6180x_GetI2cBuffer(dev,2);
 364              		.loc 1 162 5 view .LVU116
 365              	.LVL30:
 163:Src/vl6180x_i2c.c ****     buffer[0]=index>>8;
 366              		.loc 1 163 5 view .LVU117
 367              		.loc 1 163 14 is_stmt 0 view .LVU118
 368 0008 0B0A     		lsrs	r3, r1, #8
 369 000a 8DF80030 		strb	r3, [sp]
 164:Src/vl6180x_i2c.c ****     buffer[1]=index&0xFF;
 370              		.loc 1 164 5 is_stmt 1 view .LVU119
 371              		.loc 1 164 14 is_stmt 0 view .LVU120
 372 000e 8DF80110 		strb	r1, [sp, #1]
 165:Src/vl6180x_i2c.c **** 
 166:Src/vl6180x_i2c.c ****     status=VL6180x_I2CWrite(dev, buffer, (uint8_t)2);
 373              		.loc 1 166 5 is_stmt 1 view .LVU121
 374              		.loc 1 166 12 is_stmt 0 view .LVU122
 375 0012 0222     		movs	r2, #2
 376              	.LVL31:
 377              		.loc 1 166 12 view .LVU123
 378 0014 6946     		mov	r1, sp
 379              	.LVL32:
 380              		.loc 1 166 12 view .LVU124
 381 0016 FFF7FEFF 		bl	VL6180x_I2CWrite
 382              	.LVL33:
 167:Src/vl6180x_i2c.c ****     if( !status ){
 383              		.loc 1 167 5 is_stmt 1 view .LVU125
 384              		.loc 1 167 7 is_stmt 0 view .LVU126
 385 001a 08B1     		cbz	r0, .L14
 386              	.L11:
 168:Src/vl6180x_i2c.c ****         status=VL6180x_I2CRead(dev, buffer,1);
 169:Src/vl6180x_i2c.c ****         if( !status ){
 170:Src/vl6180x_i2c.c ****             *data=buffer[0];
 171:Src/vl6180x_i2c.c ****         }
 172:Src/vl6180x_i2c.c ****     }
 173:Src/vl6180x_i2c.c ****     VL6180x_DoneI2CAcces(dev);
 174:Src/vl6180x_i2c.c **** 
 175:Src/vl6180x_i2c.c ****     return status;
 176:Src/vl6180x_i2c.c **** }
 387              		.loc 1 176 1 view .LVU127
 388 001c 03B0     		add	sp, sp, #12
 389              	.LCFI15:
 390              		.cfi_remember_state
ARM GAS  C:\Users\asafw\AppData\Local\Temp\ccIUMhYi.s 			page 11


 391              		.cfi_def_cfa_offset 12
 392              	.LVL34:
 393              		.loc 1 176 1 view .LVU128
 394              		@ sp needed
 395 001e 30BD     		pop	{r4, r5, pc}
 396              	.LVL35:
 397              	.L14:
 398              	.LCFI16:
 399              		.cfi_restore_state
 168:Src/vl6180x_i2c.c ****         status=VL6180x_I2CRead(dev, buffer,1);
 400              		.loc 1 168 9 is_stmt 1 view .LVU129
 168:Src/vl6180x_i2c.c ****         status=VL6180x_I2CRead(dev, buffer,1);
 401              		.loc 1 168 16 is_stmt 0 view .LVU130
 402 0020 0122     		movs	r2, #1
 403 0022 6946     		mov	r1, sp
 404 0024 2046     		mov	r0, r4
 405 0026 FFF7FEFF 		bl	VL6180x_I2CRead
 406              	.LVL36:
 169:Src/vl6180x_i2c.c ****             *data=buffer[0];
 407              		.loc 1 169 9 is_stmt 1 view .LVU131
 169:Src/vl6180x_i2c.c ****             *data=buffer[0];
 408              		.loc 1 169 11 is_stmt 0 view .LVU132
 409 002a 0028     		cmp	r0, #0
 410 002c F6D1     		bne	.L11
 170:Src/vl6180x_i2c.c ****         }
 411              		.loc 1 170 13 is_stmt 1 view .LVU133
 170:Src/vl6180x_i2c.c ****         }
 412              		.loc 1 170 25 is_stmt 0 view .LVU134
 413 002e 9DF80030 		ldrb	r3, [sp]	@ zero_extendqisi2
 170:Src/vl6180x_i2c.c ****         }
 414              		.loc 1 170 18 view .LVU135
 415 0032 2B70     		strb	r3, [r5]
 173:Src/vl6180x_i2c.c **** 
 416              		.loc 1 173 5 is_stmt 1 view .LVU136
 175:Src/vl6180x_i2c.c **** }
 417              		.loc 1 175 5 view .LVU137
 175:Src/vl6180x_i2c.c **** }
 418              		.loc 1 175 12 is_stmt 0 view .LVU138
 419 0034 F2E7     		b	.L11
 420              		.cfi_endproc
 421              	.LFE4:
 423              		.section	.text.VL6180x_RdWord,"ax",%progbits
 424              		.align	1
 425              		.global	VL6180x_RdWord
 426              		.syntax unified
 427              		.thumb
 428              		.thumb_func
 429              		.fpu fpv4-sp-d16
 431              	VL6180x_RdWord:
 432              	.LVL37:
 433              	.LFB5:
 177:Src/vl6180x_i2c.c **** 
 178:Src/vl6180x_i2c.c **** int VL6180x_RdWord(VL6180xDev_t dev, uint16_t index, uint16_t *data){
 434              		.loc 1 178 69 is_stmt 1 view -0
 435              		.cfi_startproc
 436              		@ args = 0, pretend = 0, frame = 8
 437              		@ frame_needed = 0, uses_anonymous_args = 0
ARM GAS  C:\Users\asafw\AppData\Local\Temp\ccIUMhYi.s 			page 12


 438              		.loc 1 178 69 is_stmt 0 view .LVU140
 439 0000 30B5     		push	{r4, r5, lr}
 440              	.LCFI17:
 441              		.cfi_def_cfa_offset 12
 442              		.cfi_offset 4, -12
 443              		.cfi_offset 5, -8
 444              		.cfi_offset 14, -4
 445 0002 83B0     		sub	sp, sp, #12
 446              	.LCFI18:
 447              		.cfi_def_cfa_offset 24
 448 0004 0446     		mov	r4, r0
 449 0006 1546     		mov	r5, r2
 179:Src/vl6180x_i2c.c ****     VL6180x_I2C_USER_VAR
 180:Src/vl6180x_i2c.c ****     int  status;
 450              		.loc 1 180 5 is_stmt 1 view .LVU141
 181:Src/vl6180x_i2c.c ****     uint8_t *buffer;
 451              		.loc 1 181 5 view .LVU142
 182:Src/vl6180x_i2c.c ****     DECL_I2C_BUFFER
 452              		.loc 1 182 5 view .LVU143
 183:Src/vl6180x_i2c.c **** 
 184:Src/vl6180x_i2c.c ****     VL6180x_GetI2CAccess(dev);
 453              		.loc 1 184 5 view .LVU144
 185:Src/vl6180x_i2c.c **** 
 186:Src/vl6180x_i2c.c ****     buffer=VL6180x_GetI2cBuffer(dev,2);
 454              		.loc 1 186 5 view .LVU145
 455              	.LVL38:
 187:Src/vl6180x_i2c.c ****     buffer[0]=index>>8;
 456              		.loc 1 187 5 view .LVU146
 457              		.loc 1 187 14 is_stmt 0 view .LVU147
 458 0008 0B0A     		lsrs	r3, r1, #8
 459 000a 8DF80030 		strb	r3, [sp]
 188:Src/vl6180x_i2c.c ****     buffer[1]=index&0xFF;
 460              		.loc 1 188 5 is_stmt 1 view .LVU148
 461              		.loc 1 188 14 is_stmt 0 view .LVU149
 462 000e 8DF80110 		strb	r1, [sp, #1]
 189:Src/vl6180x_i2c.c **** 
 190:Src/vl6180x_i2c.c ****     status=VL6180x_I2CWrite(dev, buffer, (uint8_t)2);
 463              		.loc 1 190 5 is_stmt 1 view .LVU150
 464              		.loc 1 190 12 is_stmt 0 view .LVU151
 465 0012 0222     		movs	r2, #2
 466              	.LVL39:
 467              		.loc 1 190 12 view .LVU152
 468 0014 6946     		mov	r1, sp
 469              	.LVL40:
 470              		.loc 1 190 12 view .LVU153
 471 0016 FFF7FEFF 		bl	VL6180x_I2CWrite
 472              	.LVL41:
 191:Src/vl6180x_i2c.c ****     if( !status){
 473              		.loc 1 191 5 is_stmt 1 view .LVU154
 474              		.loc 1 191 7 is_stmt 0 view .LVU155
 475 001a 08B1     		cbz	r0, .L18
 476              	.L15:
 192:Src/vl6180x_i2c.c ****         status=VL6180x_I2CRead(dev, buffer,2);
 193:Src/vl6180x_i2c.c ****         if( !status ){
 194:Src/vl6180x_i2c.c ****             /* VL6180x register are Big endian if cpu is be direct read direct into *data is possib
 195:Src/vl6180x_i2c.c ****             *data=((uint16_t)buffer[0]<<8)|(uint16_t)buffer[1];
 196:Src/vl6180x_i2c.c ****         }
ARM GAS  C:\Users\asafw\AppData\Local\Temp\ccIUMhYi.s 			page 13


 197:Src/vl6180x_i2c.c ****     }
 198:Src/vl6180x_i2c.c ****     VL6180x_DoneI2CAcces(dev);
 199:Src/vl6180x_i2c.c ****     return status;
 200:Src/vl6180x_i2c.c **** }
 477              		.loc 1 200 1 view .LVU156
 478 001c 03B0     		add	sp, sp, #12
 479              	.LCFI19:
 480              		.cfi_remember_state
 481              		.cfi_def_cfa_offset 12
 482              	.LVL42:
 483              		.loc 1 200 1 view .LVU157
 484              		@ sp needed
 485 001e 30BD     		pop	{r4, r5, pc}
 486              	.LVL43:
 487              	.L18:
 488              	.LCFI20:
 489              		.cfi_restore_state
 192:Src/vl6180x_i2c.c ****         status=VL6180x_I2CRead(dev, buffer,2);
 490              		.loc 1 192 9 is_stmt 1 view .LVU158
 192:Src/vl6180x_i2c.c ****         status=VL6180x_I2CRead(dev, buffer,2);
 491              		.loc 1 192 16 is_stmt 0 view .LVU159
 492 0020 0222     		movs	r2, #2
 493 0022 6946     		mov	r1, sp
 494 0024 2046     		mov	r0, r4
 495 0026 FFF7FEFF 		bl	VL6180x_I2CRead
 496              	.LVL44:
 193:Src/vl6180x_i2c.c ****             /* VL6180x register are Big endian if cpu is be direct read direct into *data is possib
 497              		.loc 1 193 9 is_stmt 1 view .LVU160
 193:Src/vl6180x_i2c.c ****             /* VL6180x register are Big endian if cpu is be direct read direct into *data is possib
 498              		.loc 1 193 11 is_stmt 0 view .LVU161
 499 002a 0028     		cmp	r0, #0
 500 002c F6D1     		bne	.L15
 195:Src/vl6180x_i2c.c ****         }
 501              		.loc 1 195 13 is_stmt 1 view .LVU162
 195:Src/vl6180x_i2c.c ****         }
 502              		.loc 1 195 36 is_stmt 0 view .LVU163
 503 002e 9DF80020 		ldrb	r2, [sp]	@ zero_extendqisi2
 195:Src/vl6180x_i2c.c ****         }
 504              		.loc 1 195 60 view .LVU164
 505 0032 9DF80130 		ldrb	r3, [sp, #1]	@ zero_extendqisi2
 195:Src/vl6180x_i2c.c ****         }
 506              		.loc 1 195 43 view .LVU165
 507 0036 43EA0223 		orr	r3, r3, r2, lsl #8
 195:Src/vl6180x_i2c.c ****         }
 508              		.loc 1 195 18 view .LVU166
 509 003a 2B80     		strh	r3, [r5]	@ movhi
 198:Src/vl6180x_i2c.c ****     return status;
 510              		.loc 1 198 5 is_stmt 1 view .LVU167
 199:Src/vl6180x_i2c.c **** }
 511              		.loc 1 199 5 view .LVU168
 199:Src/vl6180x_i2c.c **** }
 512              		.loc 1 199 12 is_stmt 0 view .LVU169
 513 003c EEE7     		b	.L15
 514              		.cfi_endproc
 515              	.LFE5:
 517              		.section	.text.VL6180x_RdDWord,"ax",%progbits
 518              		.align	1
ARM GAS  C:\Users\asafw\AppData\Local\Temp\ccIUMhYi.s 			page 14


 519              		.global	VL6180x_RdDWord
 520              		.syntax unified
 521              		.thumb
 522              		.thumb_func
 523              		.fpu fpv4-sp-d16
 525              	VL6180x_RdDWord:
 526              	.LVL45:
 527              	.LFB6:
 201:Src/vl6180x_i2c.c **** 
 202:Src/vl6180x_i2c.c **** int  VL6180x_RdDWord(VL6180xDev_t dev, uint16_t index, uint32_t *data){
 528              		.loc 1 202 71 is_stmt 1 view -0
 529              		.cfi_startproc
 530              		@ args = 0, pretend = 0, frame = 8
 531              		@ frame_needed = 0, uses_anonymous_args = 0
 532              		.loc 1 202 71 is_stmt 0 view .LVU171
 533 0000 30B5     		push	{r4, r5, lr}
 534              	.LCFI21:
 535              		.cfi_def_cfa_offset 12
 536              		.cfi_offset 4, -12
 537              		.cfi_offset 5, -8
 538              		.cfi_offset 14, -4
 539 0002 83B0     		sub	sp, sp, #12
 540              	.LCFI22:
 541              		.cfi_def_cfa_offset 24
 542 0004 0446     		mov	r4, r0
 543 0006 1546     		mov	r5, r2
 203:Src/vl6180x_i2c.c ****     VL6180x_I2C_USER_VAR
 204:Src/vl6180x_i2c.c ****     int status;
 544              		.loc 1 204 5 is_stmt 1 view .LVU172
 205:Src/vl6180x_i2c.c ****     uint8_t *buffer;
 545              		.loc 1 205 5 view .LVU173
 206:Src/vl6180x_i2c.c ****     DECL_I2C_BUFFER
 546              		.loc 1 206 5 view .LVU174
 207:Src/vl6180x_i2c.c **** 
 208:Src/vl6180x_i2c.c ****     VL6180x_GetI2CAccess(dev);
 547              		.loc 1 208 5 view .LVU175
 209:Src/vl6180x_i2c.c ****     buffer=VL6180x_GetI2cBuffer(dev,4);
 548              		.loc 1 209 5 view .LVU176
 549              	.LVL46:
 210:Src/vl6180x_i2c.c **** 
 211:Src/vl6180x_i2c.c ****     buffer[0]=index>>8;
 550              		.loc 1 211 5 view .LVU177
 551              		.loc 1 211 14 is_stmt 0 view .LVU178
 552 0008 0B0A     		lsrs	r3, r1, #8
 553 000a 8DF80030 		strb	r3, [sp]
 212:Src/vl6180x_i2c.c ****     buffer[1]=index&0xFF;
 554              		.loc 1 212 5 is_stmt 1 view .LVU179
 555              		.loc 1 212 14 is_stmt 0 view .LVU180
 556 000e 8DF80110 		strb	r1, [sp, #1]
 213:Src/vl6180x_i2c.c **** 
 214:Src/vl6180x_i2c.c ****     status=VL6180x_I2CWrite(dev, (uint8_t *) buffer, (uint8_t)2);
 557              		.loc 1 214 5 is_stmt 1 view .LVU181
 558              		.loc 1 214 12 is_stmt 0 view .LVU182
 559 0012 0222     		movs	r2, #2
 560              	.LVL47:
 561              		.loc 1 214 12 view .LVU183
 562 0014 6946     		mov	r1, sp
ARM GAS  C:\Users\asafw\AppData\Local\Temp\ccIUMhYi.s 			page 15


 563              	.LVL48:
 564              		.loc 1 214 12 view .LVU184
 565 0016 FFF7FEFF 		bl	VL6180x_I2CWrite
 566              	.LVL49:
 215:Src/vl6180x_i2c.c ****     if( !status ){
 567              		.loc 1 215 5 is_stmt 1 view .LVU185
 568              		.loc 1 215 7 is_stmt 0 view .LVU186
 569 001a 08B1     		cbz	r0, .L22
 570              	.L19:
 216:Src/vl6180x_i2c.c ****         status=VL6180x_I2CRead(dev, buffer,4);
 217:Src/vl6180x_i2c.c ****         if( !status ){
 218:Src/vl6180x_i2c.c ****             /* VL6180x register are Big endian if cpu is be direct read direct into data is possibl
 219:Src/vl6180x_i2c.c ****             *data=((uint32_t)buffer[0]<<24)|((uint32_t)buffer[1]<<16)|((uint32_t)buffer[2]<<8)|((ui
 220:Src/vl6180x_i2c.c ****         }
 221:Src/vl6180x_i2c.c ****     }
 222:Src/vl6180x_i2c.c ****     VL6180x_DoneI2CAcces(dev);
 223:Src/vl6180x_i2c.c ****     return status;
 224:Src/vl6180x_i2c.c **** }
 571              		.loc 1 224 1 view .LVU187
 572 001c 03B0     		add	sp, sp, #12
 573              	.LCFI23:
 574              		.cfi_remember_state
 575              		.cfi_def_cfa_offset 12
 576              	.LVL50:
 577              		.loc 1 224 1 view .LVU188
 578              		@ sp needed
 579 001e 30BD     		pop	{r4, r5, pc}
 580              	.LVL51:
 581              	.L22:
 582              	.LCFI24:
 583              		.cfi_restore_state
 216:Src/vl6180x_i2c.c ****         status=VL6180x_I2CRead(dev, buffer,4);
 584              		.loc 1 216 9 is_stmt 1 view .LVU189
 216:Src/vl6180x_i2c.c ****         status=VL6180x_I2CRead(dev, buffer,4);
 585              		.loc 1 216 16 is_stmt 0 view .LVU190
 586 0020 0422     		movs	r2, #4
 587 0022 6946     		mov	r1, sp
 588 0024 2046     		mov	r0, r4
 589 0026 FFF7FEFF 		bl	VL6180x_I2CRead
 590              	.LVL52:
 217:Src/vl6180x_i2c.c ****             /* VL6180x register are Big endian if cpu is be direct read direct into data is possibl
 591              		.loc 1 217 9 is_stmt 1 view .LVU191
 217:Src/vl6180x_i2c.c ****             /* VL6180x register are Big endian if cpu is be direct read direct into data is possibl
 592              		.loc 1 217 11 is_stmt 0 view .LVU192
 593 002a 0028     		cmp	r0, #0
 594 002c F6D1     		bne	.L19
 219:Src/vl6180x_i2c.c ****         }
 595              		.loc 1 219 13 is_stmt 1 view .LVU193
 219:Src/vl6180x_i2c.c ****         }
 596              		.loc 1 219 36 is_stmt 0 view .LVU194
 597 002e 9DF80020 		ldrb	r2, [sp]	@ zero_extendqisi2
 219:Src/vl6180x_i2c.c ****         }
 598              		.loc 1 219 62 view .LVU195
 599 0032 9DF80130 		ldrb	r3, [sp, #1]	@ zero_extendqisi2
 219:Src/vl6180x_i2c.c ****         }
 600              		.loc 1 219 65 view .LVU196
 601 0036 1B04     		lsls	r3, r3, #16
ARM GAS  C:\Users\asafw\AppData\Local\Temp\ccIUMhYi.s 			page 16


 219:Src/vl6180x_i2c.c ****         }
 602              		.loc 1 219 44 view .LVU197
 603 0038 43EA0263 		orr	r3, r3, r2, lsl #24
 219:Src/vl6180x_i2c.c ****         }
 604              		.loc 1 219 88 view .LVU198
 605 003c 9DF80220 		ldrb	r2, [sp, #2]	@ zero_extendqisi2
 219:Src/vl6180x_i2c.c ****         }
 606              		.loc 1 219 70 view .LVU199
 607 0040 43EA0223 		orr	r3, r3, r2, lsl #8
 219:Src/vl6180x_i2c.c ****         }
 608              		.loc 1 219 113 view .LVU200
 609 0044 9DF80320 		ldrb	r2, [sp, #3]	@ zero_extendqisi2
 219:Src/vl6180x_i2c.c ****         }
 610              		.loc 1 219 95 view .LVU201
 611 0048 1343     		orrs	r3, r3, r2
 219:Src/vl6180x_i2c.c ****         }
 612              		.loc 1 219 18 view .LVU202
 613 004a 2B60     		str	r3, [r5]
 222:Src/vl6180x_i2c.c ****     return status;
 614              		.loc 1 222 5 is_stmt 1 view .LVU203
 223:Src/vl6180x_i2c.c **** }
 615              		.loc 1 223 5 view .LVU204
 223:Src/vl6180x_i2c.c **** }
 616              		.loc 1 223 12 is_stmt 0 view .LVU205
 617 004c E6E7     		b	.L19
 618              		.cfi_endproc
 619              	.LFE6:
 621              		.section	.text.VL6180x_RdMulti,"ax",%progbits
 622              		.align	1
 623              		.global	VL6180x_RdMulti
 624              		.syntax unified
 625              		.thumb
 626              		.thumb_func
 627              		.fpu fpv4-sp-d16
 629              	VL6180x_RdMulti:
 630              	.LVL53:
 631              	.LFB7:
 225:Src/vl6180x_i2c.c **** 
 226:Src/vl6180x_i2c.c **** 
 227:Src/vl6180x_i2c.c **** int  VL6180x_RdMulti(VL6180xDev_t dev, uint16_t index, uint8_t *data, int nData){
 632              		.loc 1 227 81 is_stmt 1 view -0
 633              		.cfi_startproc
 634              		@ args = 0, pretend = 0, frame = 8
 635              		@ frame_needed = 0, uses_anonymous_args = 0
 636              		.loc 1 227 81 is_stmt 0 view .LVU207
 637 0000 70B5     		push	{r4, r5, r6, lr}
 638              	.LCFI25:
 639              		.cfi_def_cfa_offset 16
 640              		.cfi_offset 4, -16
 641              		.cfi_offset 5, -12
 642              		.cfi_offset 6, -8
 643              		.cfi_offset 14, -4
 644 0002 82B0     		sub	sp, sp, #8
 645              	.LCFI26:
 646              		.cfi_def_cfa_offset 24
 647 0004 0446     		mov	r4, r0
 648 0006 1546     		mov	r5, r2
ARM GAS  C:\Users\asafw\AppData\Local\Temp\ccIUMhYi.s 			page 17


 649 0008 1E46     		mov	r6, r3
 228:Src/vl6180x_i2c.c ****     VL6180x_I2C_USER_VAR
 229:Src/vl6180x_i2c.c ****     int status;
 650              		.loc 1 229 5 is_stmt 1 view .LVU208
 230:Src/vl6180x_i2c.c ****     uint8_t *buffer;
 651              		.loc 1 230 5 view .LVU209
 231:Src/vl6180x_i2c.c ****     DECL_I2C_BUFFER
 652              		.loc 1 231 5 view .LVU210
 232:Src/vl6180x_i2c.c **** 
 233:Src/vl6180x_i2c.c ****     VL6180x_GetI2CAccess(dev);
 653              		.loc 1 233 5 view .LVU211
 234:Src/vl6180x_i2c.c ****     buffer=VL6180x_GetI2cBuffer(dev,2);
 654              		.loc 1 234 5 view .LVU212
 655              	.LVL54:
 235:Src/vl6180x_i2c.c **** 
 236:Src/vl6180x_i2c.c ****     buffer[0]=index>>8;
 656              		.loc 1 236 5 view .LVU213
 657              		.loc 1 236 14 is_stmt 0 view .LVU214
 658 000a 0B0A     		lsrs	r3, r1, #8
 659              	.LVL55:
 660              		.loc 1 236 14 view .LVU215
 661 000c 8DF80030 		strb	r3, [sp]
 237:Src/vl6180x_i2c.c ****     buffer[1]=index&0xFF;
 662              		.loc 1 237 5 is_stmt 1 view .LVU216
 663              		.loc 1 237 14 is_stmt 0 view .LVU217
 664 0010 8DF80110 		strb	r1, [sp, #1]
 238:Src/vl6180x_i2c.c **** 
 239:Src/vl6180x_i2c.c ****     status=VL6180x_I2CWrite(dev, (uint8_t *) buffer, (uint8_t)2);
 665              		.loc 1 239 5 is_stmt 1 view .LVU218
 666              		.loc 1 239 12 is_stmt 0 view .LVU219
 667 0014 0222     		movs	r2, #2
 668              	.LVL56:
 669              		.loc 1 239 12 view .LVU220
 670 0016 6946     		mov	r1, sp
 671              	.LVL57:
 672              		.loc 1 239 12 view .LVU221
 673 0018 FFF7FEFF 		bl	VL6180x_I2CWrite
 674              	.LVL58:
 240:Src/vl6180x_i2c.c ****     if( !status ){
 675              		.loc 1 240 5 is_stmt 1 view .LVU222
 676              		.loc 1 240 7 is_stmt 0 view .LVU223
 677 001c 08B1     		cbz	r0, .L26
 678              	.L23:
 241:Src/vl6180x_i2c.c ****         status=VL6180x_I2CRead(dev, data, nData);
 242:Src/vl6180x_i2c.c ****     }
 243:Src/vl6180x_i2c.c ****     VL6180x_DoneI2CAcces(dev);
 244:Src/vl6180x_i2c.c ****     return status;
 245:Src/vl6180x_i2c.c **** }
 679              		.loc 1 245 1 view .LVU224
 680 001e 02B0     		add	sp, sp, #8
 681              	.LCFI27:
 682              		.cfi_remember_state
 683              		.cfi_def_cfa_offset 16
 684              	.LVL59:
 685              		.loc 1 245 1 view .LVU225
 686              		@ sp needed
 687 0020 70BD     		pop	{r4, r5, r6, pc}
ARM GAS  C:\Users\asafw\AppData\Local\Temp\ccIUMhYi.s 			page 18


 688              	.LVL60:
 689              	.L26:
 690              	.LCFI28:
 691              		.cfi_restore_state
 241:Src/vl6180x_i2c.c ****         status=VL6180x_I2CRead(dev, data, nData);
 692              		.loc 1 241 9 is_stmt 1 view .LVU226
 241:Src/vl6180x_i2c.c ****         status=VL6180x_I2CRead(dev, data, nData);
 693              		.loc 1 241 16 is_stmt 0 view .LVU227
 694 0022 F2B2     		uxtb	r2, r6
 695 0024 2946     		mov	r1, r5
 696 0026 2046     		mov	r0, r4
 697 0028 FFF7FEFF 		bl	VL6180x_I2CRead
 698              	.LVL61:
 243:Src/vl6180x_i2c.c ****     return status;
 699              		.loc 1 243 5 is_stmt 1 view .LVU228
 244:Src/vl6180x_i2c.c **** }
 700              		.loc 1 244 5 view .LVU229
 244:Src/vl6180x_i2c.c **** }
 701              		.loc 1 244 12 is_stmt 0 view .LVU230
 702 002c F7E7     		b	.L23
 703              		.cfi_endproc
 704              	.LFE7:
 706              		.text
 707              	.Letext0:
 708              		.file 2 "c:\\program files (x86)\\gnu arm embedded toolchain\\9 2020-q2-update\\arm-none-eabi\\inc
 709              		.file 3 "c:\\program files (x86)\\gnu arm embedded toolchain\\9 2020-q2-update\\arm-none-eabi\\inc
 710              		.file 4 "c:\\program files (x86)\\gnu arm embedded toolchain\\9 2020-q2-update\\arm-none-eabi\\inc
 711              		.file 5 "Inc/vl6180x_def.h"
 712              		.file 6 "Inc/vl6180x_platform.h"
 713              		.file 7 "Inc/vl6180x_i2c.h"
ARM GAS  C:\Users\asafw\AppData\Local\Temp\ccIUMhYi.s 			page 19

